---
triple:          'arm64-apple-darwin'
binary-path:     '/Users/leocooley/Desktop/CSProjects/leetcode/cpp_refresh/string_practice'
relocations:
  - { offset: 0x3372, size: 0x8, addend: 0x0, symName: __ZNSt3__124__put_character_sequenceB8ne190107IcNS_11char_traitsIcEEEERNS_13basic_ostreamIT_T0_EES7_PKS4_m, symObjAddr: 0xDA4, symBinAddr: 0x100001EDC, symSize: 0x1E4 }
  - { offset: 0x44D5, size: 0x8, addend: 0x0, symName: __ZNSt3__1lsB8ne190107IcNS_11char_traitsIcEENS_9allocatorIcEEEERNS_13basic_ostreamIT_T0_EES9_RKNS_12basic_stringIS6_S7_T1_EE, symObjAddr: 0x744, symBinAddr: 0x10000187C, symSize: 0x4C }
  - { offset: 0x452D, size: 0x8, addend: 0x0, symName: __ZNSt3__14endlB8ne190107IcNS_11char_traitsIcEEEERNS_13basic_ostreamIT_T0_EES7_, symObjAddr: 0x7BC, symBinAddr: 0x1000018F4, symSize: 0x54 }
  - { offset: 0x456D, size: 0x8, addend: 0x0, symName: __ZNSt3__1lsB8ne190107INS_11char_traitsIcEEEERNS_13basic_ostreamIcT_EES6_PKc, symObjAddr: 0x878, symBinAddr: 0x1000019B0, symSize: 0x48 }
  - { offset: 0x45B3, size: 0x8, addend: 0x0, symName: __ZNSt3__1lsB8ne190107INS_11char_traitsIcEEEERNS_13basic_ostreamIcT_EES6_c, symObjAddr: 0x8C0, symBinAddr: 0x1000019F8, symSize: 0x34 }
  - { offset: 0x45F9, size: 0x8, addend: 0x0, symName: __ZNSt3__1eqB8ne190107IcNS_11char_traitsIcEENS_9allocatorIcEEEEbRKNS_12basic_stringIT_T0_T1_EEPKS6_, symObjAddr: 0x9B4, symBinAddr: 0x100001AEC, symSize: 0xA4 }
  - { offset: 0x4660, size: 0x8, addend: 0x0, symName: __ZNSt3__1plB8ne190107IcNS_11char_traitsIcEENS_9allocatorIcEEEENS_12basic_stringIT_T0_T1_EERKS9_PKS6_, symObjAddr: 0xAB8, symBinAddr: 0x100001BF0, symSize: 0x11C }
  - { offset: 0x4701, size: 0x8, addend: 0x0, symName: __ZNSt3__118__constexpr_strlenB8ne190107IcEEmPKT_, symObjAddr: 0xD80, symBinAddr: 0x100001EB8, symSize: 0x24 }
  - { offset: 0x4736, size: 0x8, addend: 0x0, symName: __ZNSt3__116__pad_and_outputB8ne190107IcNS_11char_traitsIcEEEENS_19ostreambuf_iteratorIT_T0_EES6_PKS4_S8_S8_RNS_8ios_baseES4_, symObjAddr: 0xFCC, symBinAddr: 0x100002104, symSize: 0x214 }
  - { offset: 0x4805, size: 0x8, addend: 0x0, symName: __ZNSt3__19use_facetB8ne190107INS_5ctypeIcEEEERKT_RKNS_6localeE, symObjAddr: 0x157C, symBinAddr: 0x1000026B4, symSize: 0x2C }
  - { offset: 0x4CD2, size: 0x8, addend: 0x0, symName: __ZNSt3__112__to_addressB8ne190107IKcEEPT_S3_, symObjAddr: 0x1610, symBinAddr: 0x100002748, symSize: 0x14 }
  - { offset: 0x4D3A, size: 0x8, addend: 0x0, symName: __ZNSt3__18distanceB8ne190107IPKcEENS_15iterator_traitsIT_E15difference_typeES4_S4_, symObjAddr: 0x1934, symBinAddr: 0x100002A6C, symSize: 0x2C }
  - { offset: 0x4D7D, size: 0x8, addend: 0x0, symName: __ZNSt3__110__distanceB8ne190107IPKcEENS_15iterator_traitsIT_E15difference_typeES4_S4_NS_26random_access_iterator_tagE, symObjAddr: 0x1B34, symBinAddr: 0x100002C6C, symSize: 0x20 }
  - { offset: 0x4DCA, size: 0x8, addend: 0x0, symName: __ZNSt3__119__allocate_at_leastB8ne190107INS_9allocatorIcEEEENS_19__allocation_resultINS_16allocator_traitsIT_E7pointerEEERS5_m, symObjAddr: 0x1CD4, symBinAddr: 0x100002E0C, symSize: 0x40 }
  - { offset: 0x4E0D, size: 0x8, addend: 0x0, symName: __ZNSt3__112__to_addressB8ne190107IcEEPT_S2_, symObjAddr: 0x1F10, symBinAddr: 0x100003048, symSize: 0x14 }
  - { offset: 0x5044, size: 0x8, addend: 0x0, symName: __ZNSt3__120__throw_length_errorB8ne190107EPKc, symObjAddr: 0x2084, symBinAddr: 0x1000031BC, symSize: 0x64 }
  - { offset: 0x509F, size: 0x8, addend: 0x0, symName: __ZNSt3__117__libcpp_allocateB8ne190107Emm, symObjAddr: 0x2234, symBinAddr: 0x10000336C, symSize: 0x28 }
  - { offset: 0x50DC, size: 0x8, addend: 0x0, symName: __ZNSt3__121__libcpp_operator_newB8ne190107IJmEEEPvDpT_, symObjAddr: 0x225C, symBinAddr: 0x100003394, symSize: 0x24 }
  - { offset: 0x5115, size: 0x8, addend: 0x0, symName: __ZNSt3__119__constexpr_memmoveB8ne190107IcKcTnNS_9enable_ifIXsr23__is_always_bitcastableIT0_T_EE5valueEiE4typeELi0EEEPS4_S7_PS3_NS_15__element_countE, symObjAddr: 0x2314, symBinAddr: 0x10000344C, symSize: 0x60 }
  - { offset: 0x5183, size: 0x8, addend: 0x0, symName: __ZNSt3__119__libcpp_deallocateB8ne190107EPvmm, symObjAddr: 0x23B4, symBinAddr: 0x1000034EC, symSize: 0x30 }
  - { offset: 0x51CB, size: 0x8, addend: 0x0, symName: __ZNSt3__127__do_deallocate_handle_sizeB8ne190107IJEEEvPvmDpT_, symObjAddr: 0x23E4, symBinAddr: 0x10000351C, symSize: 0x2C }
  - { offset: 0x5209, size: 0x8, addend: 0x0, symName: __ZNSt3__124__libcpp_operator_deleteB8ne190107IJPvmEEEvDpT_, symObjAddr: 0x2410, symBinAddr: 0x100003548, symSize: 0x2C }
  - { offset: 0x5252, size: 0x8, addend: 0x0, symName: __ZNSt3__16fill_nB8ne190107IPcmcEET_S2_T0_RKT1_, symObjAddr: 0x2778, symBinAddr: 0x1000038B0, symSize: 0x44 }
  - { offset: 0x52B5, size: 0x8, addend: 0x0, symName: __ZNSt3__18__fill_nB8ne190107IPcmcEET_S2_T0_RKT1_, symObjAddr: 0x27BC, symBinAddr: 0x1000038F4, symSize: 0x60 }
  - { offset: 0x5318, size: 0x8, addend: 0x0, symName: __ZNSt3__121__convert_to_integralB8ne190107Em, symObjAddr: 0x281C, symBinAddr: 0x100003954, symSize: 0x14 }
  - { offset: 0x614F, size: 0x8, addend: 0x0, symName: __ZSt28__throw_bad_array_new_lengthB8ne190107v, symObjAddr: 0x2200, symBinAddr: 0x100003338, symSize: 0x34 }
  - { offset: 0x65B9, size: 0x8, addend: 0x0, symName: _main, symObjAddr: 0x0, symBinAddr: 0x100001138, symSize: 0x710 }
  - { offset: 0x664F, size: 0x8, addend: 0x0, symName: __ZNSt3__112basic_stringIcNS_11char_traitsIcEENS_9allocatorIcEEEC1B8ne190107ILi0EEEPKc, symObjAddr: 0x710, symBinAddr: 0x100001848, symSize: 0x34 }
  - { offset: 0x668C, size: 0x8, addend: 0x0, symName: __ZNSt3__113basic_ostreamIcNS_11char_traitsIcEEElsB8ne190107EPFRS3_S4_E, symObjAddr: 0x790, symBinAddr: 0x1000018C8, symSize: 0x2C }
  - { offset: 0x66BE, size: 0x8, addend: 0x0, symName: __ZNSt3__112basic_stringIcNS_11char_traitsIcEENS_9allocatorIcEEEC1B8ne190107Ev, symObjAddr: 0x810, symBinAddr: 0x100001948, symSize: 0x2C }
  - { offset: 0x66E6, size: 0x8, addend: 0x0, symName: __ZNSt3__112basic_stringIcNS_11char_traitsIcEENS_9allocatorIcEEEC1B8ne190107ESt16initializer_listIcE, symObjAddr: 0x83C, symBinAddr: 0x100001974, symSize: 0x3C }
  - { offset: 0x671D, size: 0x8, addend: 0x0, symName: __ZNSt3__112basic_stringIcNS_11char_traitsIcEENS_9allocatorIcEEEixB8ne190107Em, symObjAddr: 0x8F4, symBinAddr: 0x100001A2C, symSize: 0x48 }
  - { offset: 0x6750, size: 0x8, addend: 0x0, symName: __ZNKSt3__112basic_stringIcNS_11char_traitsIcEENS_9allocatorIcEEE6lengthB8ne190107Ev, symObjAddr: 0x93C, symBinAddr: 0x100001A74, symSize: 0x24 }
  - { offset: 0x6774, size: 0x8, addend: 0x0, symName: __ZNKSt3__112basic_stringIcNS_11char_traitsIcEENS_9allocatorIcEEE4sizeB8ne190107Ev, symObjAddr: 0x960, symBinAddr: 0x100001A98, symSize: 0x54 }
  - { offset: 0x6798, size: 0x8, addend: 0x0, symName: __ZNKSt3__112basic_stringIcNS_11char_traitsIcEENS_9allocatorIcEEE5emptyB8ne190107Ev, symObjAddr: 0xA58, symBinAddr: 0x100001B90, symSize: 0x2C }
  - { offset: 0x67BC, size: 0x8, addend: 0x0, symName: __ZNSt3__112basic_stringIcNS_11char_traitsIcEENS_9allocatorIcEEEpLB8ne190107Ec, symObjAddr: 0xA84, symBinAddr: 0x100001BBC, symSize: 0x34 }
  - { offset: 0x67EF, size: 0x8, addend: 0x0, symName: __ZNSt3__112basic_stringIcNS_11char_traitsIcEENS_9allocatorIcEEE8pop_backB8ne190107Ev, symObjAddr: 0xBD4, symBinAddr: 0x100001D0C, symSize: 0x38 }
  - { offset: 0x6815, size: 0x8, addend: 0x0, symName: __ZNSt3__112basic_stringIcNS_11char_traitsIcEENS_9allocatorIcEEEC2B8ne190107ILi0EEEPKc, symObjAddr: 0xC0C, symBinAddr: 0x100001D44, symSize: 0x58 }
  - { offset: 0x6857, size: 0x8, addend: 0x0, symName: __ZNSt3__117__compressed_pairINS_12basic_stringIcNS_11char_traitsIcEENS_9allocatorIcEEE5__repES5_EC1B8ne190107INS_18__default_init_tagESA_EEOT_OT0_, symObjAddr: 0xC64, symBinAddr: 0x100001D9C, symSize: 0x3C }
  - { offset: 0x68AD, size: 0x8, addend: 0x0, symName: __ZNSt3__111char_traitsIcE6lengthB8ne190107EPKc, symObjAddr: 0xCA0, symBinAddr: 0x100001DD8, symSize: 0x24 }
  - { offset: 0x68CF, size: 0x8, addend: 0x0, symName: __ZNSt3__117__compressed_pairINS_12basic_stringIcNS_11char_traitsIcEENS_9allocatorIcEEE5__repES5_EC2B8ne190107INS_18__default_init_tagESA_EEOT_OT0_, symObjAddr: 0xCC4, symBinAddr: 0x100001DFC, symSize: 0x3C }
  - { offset: 0x6925, size: 0x8, addend: 0x0, symName: __ZNSt3__122__compressed_pair_elemINS_12basic_stringIcNS_11char_traitsIcEENS_9allocatorIcEEE5__repELi0ELb0EEC2B8ne190107ENS_18__default_init_tagE, symObjAddr: 0xD00, symBinAddr: 0x100001E38, symSize: 0x14 }
  - { offset: 0x6957, size: 0x8, addend: 0x0, symName: __ZNSt3__122__compressed_pair_elemINS_9allocatorIcEELi1ELb1EEC2B8ne190107ENS_18__default_init_tagE, symObjAddr: 0xD14, symBinAddr: 0x100001E4C, symSize: 0x2C }
  - { offset: 0x6989, size: 0x8, addend: 0x0, symName: __ZNSt3__19allocatorIcEC2B8ne190107Ev, symObjAddr: 0xD40, symBinAddr: 0x100001E78, symSize: 0x2C }
  - { offset: 0x69B1, size: 0x8, addend: 0x0, symName: __ZNSt3__116__non_trivial_ifILb1ENS_9allocatorIcEEEC2B8ne190107Ev, symObjAddr: 0xD6C, symBinAddr: 0x100001EA4, symSize: 0x14 }
  - { offset: 0x69D9, size: 0x8, addend: 0x0, symName: __ZNKSt3__112basic_stringIcNS_11char_traitsIcEENS_9allocatorIcEEE4dataB8ne190107Ev, symObjAddr: 0xF88, symBinAddr: 0x1000020C0, symSize: 0x28 }
  - { offset: 0x6A1B, size: 0x8, addend: 0x0, symName: __ZNKSt3__113basic_ostreamIcNS_11char_traitsIcEEE6sentrycvbB8ne190107Ev, symObjAddr: 0xFB0, symBinAddr: 0x1000020E8, symSize: 0x1C }
  - { offset: 0x6A3F, size: 0x8, addend: 0x0, symName: __ZNSt3__119ostreambuf_iteratorIcNS_11char_traitsIcEEEC1B8ne190107ERNS_13basic_ostreamIcS2_EE, symObjAddr: 0x11E0, symBinAddr: 0x100002318, symSize: 0x34 }
  - { offset: 0x6A75, size: 0x8, addend: 0x0, symName: __ZNKSt3__18ios_base5flagsB8ne190107Ev, symObjAddr: 0x1214, symBinAddr: 0x10000234C, symSize: 0x18 }
  - { offset: 0x6A9B, size: 0x8, addend: 0x0, symName: __ZNKSt3__19basic_iosIcNS_11char_traitsIcEEE4fillB8ne190107Ev, symObjAddr: 0x122C, symBinAddr: 0x100002364, symSize: 0x64 }
  - { offset: 0x6ABF, size: 0x8, addend: 0x0, symName: __ZNKSt3__119ostreambuf_iteratorIcNS_11char_traitsIcEEE6failedB8ne190107Ev, symObjAddr: 0x1290, symBinAddr: 0x1000023C8, symSize: 0x20 }
  - { offset: 0x6AE3, size: 0x8, addend: 0x0, symName: __ZNSt3__19basic_iosIcNS_11char_traitsIcEEE8setstateB8ne190107Ej, symObjAddr: 0x12B0, symBinAddr: 0x1000023E8, symSize: 0x2C }
  - { offset: 0x6B16, size: 0x8, addend: 0x0, symName: __ZNKSt3__18ios_base5widthB8ne190107Ev, symObjAddr: 0x12EC, symBinAddr: 0x100002424, symSize: 0x18 }
  - { offset: 0x6B3C, size: 0x8, addend: 0x0, symName: __ZNSt3__115basic_streambufIcNS_11char_traitsIcEEE5sputnB8ne190107EPKcl, symObjAddr: 0x1304, symBinAddr: 0x10000243C, symSize: 0x3C }
  - { offset: 0x6B7C, size: 0x8, addend: 0x0, symName: __ZNSt3__112basic_stringIcNS_11char_traitsIcEENS_9allocatorIcEEEC1B8ne190107Emc, symObjAddr: 0x1340, symBinAddr: 0x100002478, symSize: 0x3C }
  - { offset: 0x6BC2, size: 0x8, addend: 0x0, symName: __ZNSt3__18ios_base5widthB8ne190107El, symObjAddr: 0x137C, symBinAddr: 0x1000024B4, symSize: 0x2C }
  - { offset: 0x6C06, size: 0x8, addend: 0x0, symName: __ZNSt3__112basic_stringIcNS_11char_traitsIcEENS_9allocatorIcEEEC2B8ne190107Emc, symObjAddr: 0x13A8, symBinAddr: 0x1000024E0, symSize: 0x4C }
  - { offset: 0x6C4C, size: 0x8, addend: 0x0, symName: __ZNSt3__119ostreambuf_iteratorIcNS_11char_traitsIcEEEC2B8ne190107ERNS_13basic_ostreamIcS2_EE, symObjAddr: 0x13F4, symBinAddr: 0x10000252C, symSize: 0x54 }
  - { offset: 0x6C82, size: 0x8, addend: 0x0, symName: __ZNKSt3__19basic_iosIcNS_11char_traitsIcEEE5rdbufB8ne190107Ev, symObjAddr: 0x1448, symBinAddr: 0x100002580, symSize: 0x24 }
  - { offset: 0x6CA6, size: 0x8, addend: 0x0, symName: __ZNKSt3__18ios_base5rdbufB8ne190107Ev, symObjAddr: 0x146C, symBinAddr: 0x1000025A4, symSize: 0x18 }
  - { offset: 0x6CCA, size: 0x8, addend: 0x0, symName: __ZNKSt3__118_SentinelValueFillINS_11char_traitsIcEEE8__is_setB8ne190107Ev, symObjAddr: 0x1484, symBinAddr: 0x1000025BC, symSize: 0x38 }
  - { offset: 0x6CEE, size: 0x8, addend: 0x0, symName: __ZNKSt3__19basic_iosIcNS_11char_traitsIcEEE5widenB8ne190107Ec, symObjAddr: 0x14BC, symBinAddr: 0x1000025F4, symSize: 0x80 }
  - { offset: 0x6D21, size: 0x8, addend: 0x0, symName: __ZNSt3__118_SentinelValueFillINS_11char_traitsIcEEEaSB8ne190107Ei, symObjAddr: 0x153C, symBinAddr: 0x100002674, symSize: 0x20 }
  - { offset: 0x6D54, size: 0x8, addend: 0x0, symName: __ZNKSt3__118_SentinelValueFillINS_11char_traitsIcEEE5__getB8ne190107Ev, symObjAddr: 0x155C, symBinAddr: 0x100002694, symSize: 0x18 }
  - { offset: 0x6D78, size: 0x8, addend: 0x0, symName: __ZNSt3__111char_traitsIcE3eofB8ne190107Ev, symObjAddr: 0x1574, symBinAddr: 0x1000026AC, symSize: 0x8 }
  - { offset: 0x6DC8, size: 0x8, addend: 0x0, symName: __ZNKSt3__15ctypeIcE5widenB8ne190107Ec, symObjAddr: 0x15A8, symBinAddr: 0x1000026E0, symSize: 0x34 }
  - { offset: 0x6DFB, size: 0x8, addend: 0x0, symName: __ZNSt3__18ios_base8setstateB8ne190107Ej, symObjAddr: 0x15DC, symBinAddr: 0x100002714, symSize: 0x34 }
  - { offset: 0x6E30, size: 0x8, addend: 0x0, symName: __ZNKSt3__112basic_stringIcNS_11char_traitsIcEENS_9allocatorIcEEE13__get_pointerB8ne190107Ev, symObjAddr: 0x1624, symBinAddr: 0x10000275C, symSize: 0x54 }
  - { offset: 0x6E54, size: 0x8, addend: 0x0, symName: __ZNKSt3__112basic_stringIcNS_11char_traitsIcEENS_9allocatorIcEEE9__is_longB8ne190107Ev, symObjAddr: 0x1678, symBinAddr: 0x1000027B0, symSize: 0x34 }
  - { offset: 0x6E78, size: 0x8, addend: 0x0, symName: __ZNKSt3__112basic_stringIcNS_11char_traitsIcEENS_9allocatorIcEEE18__get_long_pointerB8ne190107Ev, symObjAddr: 0x16AC, symBinAddr: 0x1000027E4, symSize: 0x28 }
  - { offset: 0x6E9C, size: 0x8, addend: 0x0, symName: __ZNKSt3__112basic_stringIcNS_11char_traitsIcEENS_9allocatorIcEEE19__get_short_pointerB8ne190107Ev, symObjAddr: 0x16D4, symBinAddr: 0x10000280C, symSize: 0x28 }
  - { offset: 0x6EC0, size: 0x8, addend: 0x0, symName: __ZNKSt3__117__compressed_pairINS_12basic_stringIcNS_11char_traitsIcEENS_9allocatorIcEEE5__repES5_E5firstB8ne190107Ev, symObjAddr: 0x16FC, symBinAddr: 0x100002834, symSize: 0x24 }
  - { offset: 0x6EE4, size: 0x8, addend: 0x0, symName: __ZNKSt3__122__compressed_pair_elemINS_12basic_stringIcNS_11char_traitsIcEENS_9allocatorIcEEE5__repELi0ELb0EE5__getB8ne190107Ev, symObjAddr: 0x1720, symBinAddr: 0x100002858, symSize: 0x14 }
  - { offset: 0x6F08, size: 0x8, addend: 0x0, symName: __ZNSt3__114pointer_traitsIPKcE10pointer_toB8ne190107ERS1_, symObjAddr: 0x1734, symBinAddr: 0x10000286C, symSize: 0x14 }
  - { offset: 0x6F2A, size: 0x8, addend: 0x0, symName: __ZNSt3__112basic_stringIcNS_11char_traitsIcEENS_9allocatorIcEEEC2B8ne190107Ev, symObjAddr: 0x1748, symBinAddr: 0x100002880, symSize: 0x48 }
  - { offset: 0x6F57, size: 0x8, addend: 0x0, symName: __ZNSt3__117__compressed_pairINS_12basic_stringIcNS_11char_traitsIcEENS_9allocatorIcEEE5__repES5_EC1B8ne190107INS_16__value_init_tagENS_18__default_init_tagEEEOT_OT0_, symObjAddr: 0x1790, symBinAddr: 0x1000028C8, symSize: 0x3C }
  - { offset: 0x6FAD, size: 0x8, addend: 0x0, symName: __ZNKSt3__112basic_stringIcNS_11char_traitsIcEENS_9allocatorIcEEE14__annotate_newB8ne190107Em, symObjAddr: 0x17CC, symBinAddr: 0x100002904, symSize: 0x14 }
  - { offset: 0x6FE0, size: 0x8, addend: 0x0, symName: __ZNSt3__117__compressed_pairINS_12basic_stringIcNS_11char_traitsIcEENS_9allocatorIcEEE5__repES5_EC2B8ne190107INS_16__value_init_tagENS_18__default_init_tagEEEOT_OT0_, symObjAddr: 0x17E0, symBinAddr: 0x100002918, symSize: 0x3C }
  - { offset: 0x7036, size: 0x8, addend: 0x0, symName: __ZNSt3__122__compressed_pair_elemINS_12basic_stringIcNS_11char_traitsIcEENS_9allocatorIcEEE5__repELi0ELb0EEC2B8ne190107ENS_16__value_init_tagE, symObjAddr: 0x181C, symBinAddr: 0x100002954, symSize: 0x20 }
  - { offset: 0x7068, size: 0x8, addend: 0x0, symName: __ZNSt3__112basic_stringIcNS_11char_traitsIcEENS_9allocatorIcEEEC2B8ne190107ESt16initializer_listIcE, symObjAddr: 0x183C, symBinAddr: 0x100002974, symSize: 0x6C }
  - { offset: 0x709F, size: 0x8, addend: 0x0, symName: __ZNSt3__112basic_stringIcNS_11char_traitsIcEENS_9allocatorIcEEE6__initIPKcTnNS_9enable_ifIXsr31__has_forward_iterator_categoryIT_EE5valueEiE4typeELi0EEEvSA_SA_, symObjAddr: 0x18A8, symBinAddr: 0x1000029E0, symSize: 0x54 }
  - { offset: 0x70FF, size: 0x8, addend: 0x0, symName: __ZNKSt16initializer_listIcE5beginB8ne190107Ev, symObjAddr: 0x18FC, symBinAddr: 0x100002A34, symSize: 0x18 }
  - { offset: 0x7123, size: 0x8, addend: 0x0, symName: __ZNKSt16initializer_listIcE3endB8ne190107Ev, symObjAddr: 0x1914, symBinAddr: 0x100002A4C, symSize: 0x20 }
  - { offset: 0x7147, size: 0x8, addend: 0x0, symName: __ZNSt3__112basic_stringIcNS_11char_traitsIcEENS_9allocatorIcEEE16__init_with_sizeB8ne190107IPKcS8_EEvT_T0_m, symObjAddr: 0x1960, symBinAddr: 0x100002A98, symSize: 0x1D4 }
  - { offset: 0x71F5, size: 0x8, addend: 0x0, symName: __ZNKSt3__112basic_stringIcNS_11char_traitsIcEENS_9allocatorIcEEE8max_sizeB8ne190107Ev, symObjAddr: 0x1B54, symBinAddr: 0x100002C8C, symSize: 0xA8 }
  - { offset: 0x7246, size: 0x8, addend: 0x0, symName: __ZNKSt3__112basic_stringIcNS_11char_traitsIcEENS_9allocatorIcEEE20__throw_length_errorB8ne190107Ev, symObjAddr: 0x1BFC, symBinAddr: 0x100002D34, symSize: 0x1C }
  - { offset: 0x726A, size: 0x8, addend: 0x0, symName: __ZNSt3__112basic_stringIcNS_11char_traitsIcEENS_9allocatorIcEEE13__fits_in_ssoB8ne190107Em, symObjAddr: 0x1C18, symBinAddr: 0x100002D50, symSize: 0x1C }
  - { offset: 0x728D, size: 0x8, addend: 0x0, symName: __ZNSt3__112basic_stringIcNS_11char_traitsIcEENS_9allocatorIcEEE16__set_short_sizeB8ne190107Em, symObjAddr: 0x1C34, symBinAddr: 0x100002D6C, symSize: 0x78 }
  - { offset: 0x72C0, size: 0x8, addend: 0x0, symName: __ZNSt3__112basic_stringIcNS_11char_traitsIcEENS_9allocatorIcEEE19__get_short_pointerB8ne190107Ev, symObjAddr: 0x1CAC, symBinAddr: 0x100002DE4, symSize: 0x28 }
  - { offset: 0x72E4, size: 0x8, addend: 0x0, symName: __ZNSt3__112basic_stringIcNS_11char_traitsIcEENS_9allocatorIcEEE7__allocB8ne190107Ev, symObjAddr: 0x1D14, symBinAddr: 0x100002E4C, symSize: 0x24 }
  - { offset: 0x7308, size: 0x8, addend: 0x0, symName: __ZNSt3__112basic_stringIcNS_11char_traitsIcEENS_9allocatorIcEEE11__recommendB8ne190107Em, symObjAddr: 0x1D38, symBinAddr: 0x100002E70, symSize: 0x84 }
  - { offset: 0x7349, size: 0x8, addend: 0x0, symName: __ZNSt3__112basic_stringIcNS_11char_traitsIcEENS_9allocatorIcEEE16__begin_lifetimeB8ne190107EPcm, symObjAddr: 0x1DBC, symBinAddr: 0x100002EF4, symSize: 0x14 }
  - { offset: 0x737B, size: 0x8, addend: 0x0, symName: __ZNSt3__112basic_stringIcNS_11char_traitsIcEENS_9allocatorIcEEE18__set_long_pointerB8ne190107EPc, symObjAddr: 0x1DD0, symBinAddr: 0x100002F08, symSize: 0x38 }
  - { offset: 0x73AE, size: 0x8, addend: 0x0, symName: __ZNSt3__112basic_stringIcNS_11char_traitsIcEENS_9allocatorIcEEE14__set_long_capB8ne190107Em, symObjAddr: 0x1E08, symBinAddr: 0x100002F40, symSize: 0x70 }
  - { offset: 0x73E1, size: 0x8, addend: 0x0, symName: __ZNSt3__112basic_stringIcNS_11char_traitsIcEENS_9allocatorIcEEE15__set_long_sizeB8ne190107Em, symObjAddr: 0x1E78, symBinAddr: 0x100002FB0, symSize: 0x38 }
  - { offset: 0x7414, size: 0x8, addend: 0x0, symName: __ZNSt3__112basic_stringIcNS_11char_traitsIcEENS_9allocatorIcEEE28__copy_non_overlapping_rangeB8ne190107IPKcS8_EEPcT_T0_S9_, symObjAddr: 0x1EB0, symBinAddr: 0x100002FE8, symSize: 0x60 }
  - { offset: 0x7467, size: 0x8, addend: 0x0, symName: __ZNSt3__111char_traitsIcE6assignB8ne190107ERcRKc, symObjAddr: 0x1F24, symBinAddr: 0x10000305C, symSize: 0x24 }
  - { offset: 0x7497, size: 0x8, addend: 0x0, symName: __ZNSt3__116allocator_traitsINS_9allocatorIcEEE10deallocateB8ne190107ERS2_Pcm, symObjAddr: 0x1F48, symBinAddr: 0x100003080, symSize: 0x34 }
  - { offset: 0x74D8, size: 0x8, addend: 0x0, symName: __ZNSt3__112basic_stringIcNS_11char_traitsIcEENS_9allocatorIcEEE18__get_long_pointerB8ne190107Ev, symObjAddr: 0x1F7C, symBinAddr: 0x1000030B4, symSize: 0x28 }
  - { offset: 0x74FC, size: 0x8, addend: 0x0, symName: __ZNKSt3__112basic_stringIcNS_11char_traitsIcEENS_9allocatorIcEEE14__get_long_capB8ne190107Ev, symObjAddr: 0x1FA4, symBinAddr: 0x1000030DC, symSize: 0x30 }
  - { offset: 0x752A, size: 0x8, addend: 0x0, symName: __ZNSt3__116allocator_traitsINS_9allocatorIcEEE8max_sizeB8ne190107IS2_TnNS_9enable_ifIXsr14__has_max_sizeIKT_EE5valueEiE4typeELi0EEEmRKS2_, symObjAddr: 0x1FD4, symBinAddr: 0x10000310C, symSize: 0x24 }
  - { offset: 0x755C, size: 0x8, addend: 0x0, symName: __ZNKSt3__112basic_stringIcNS_11char_traitsIcEENS_9allocatorIcEEE7__allocB8ne190107Ev, symObjAddr: 0x1FF8, symBinAddr: 0x100003130, symSize: 0x24 }
  - { offset: 0x7581, size: 0x8, addend: 0x0, symName: __ZNSt3__114numeric_limitsImE3maxB8ne190107Ev, symObjAddr: 0x201C, symBinAddr: 0x100003154, symSize: 0x14 }
  - { offset: 0x7594, size: 0x8, addend: 0x0, symName: __ZNKSt3__19allocatorIcE8max_sizeB8ne190107Ev, symObjAddr: 0x2030, symBinAddr: 0x100003168, symSize: 0x14 }
  - { offset: 0x75B8, size: 0x8, addend: 0x0, symName: __ZNKSt3__117__compressed_pairINS_12basic_stringIcNS_11char_traitsIcEENS_9allocatorIcEEE5__repES5_E6secondB8ne190107Ev, symObjAddr: 0x2044, symBinAddr: 0x10000317C, symSize: 0x24 }
  - { offset: 0x75DC, size: 0x8, addend: 0x0, symName: __ZNKSt3__122__compressed_pair_elemINS_9allocatorIcEELi1ELb1EE5__getB8ne190107Ev, symObjAddr: 0x2068, symBinAddr: 0x1000031A0, symSize: 0x14 }
  - { offset: 0x7600, size: 0x8, addend: 0x0, symName: __ZNSt3__123__libcpp_numeric_limitsImLb1EE3maxB8ne190107Ev, symObjAddr: 0x207C, symBinAddr: 0x1000031B4, symSize: 0x8 }
  - { offset: 0x7613, size: 0x8, addend: 0x0, symName: __ZNSt12length_errorC1B8ne190107EPKc, symObjAddr: 0x20E8, symBinAddr: 0x100003220, symSize: 0x34 }
  - { offset: 0x7649, size: 0x8, addend: 0x0, symName: __ZNSt12length_errorC2B8ne190107EPKc, symObjAddr: 0x211C, symBinAddr: 0x100003254, symSize: 0x44 }
  - { offset: 0x767F, size: 0x8, addend: 0x0, symName: __ZNSt3__117__compressed_pairINS_12basic_stringIcNS_11char_traitsIcEENS_9allocatorIcEEE5__repES5_E5firstB8ne190107Ev, symObjAddr: 0x2160, symBinAddr: 0x100003298, symSize: 0x24 }
  - { offset: 0x76A3, size: 0x8, addend: 0x0, symName: __ZNSt3__122__compressed_pair_elemINS_12basic_stringIcNS_11char_traitsIcEENS_9allocatorIcEEE5__repELi0ELb0EE5__getB8ne190107Ev, symObjAddr: 0x2184, symBinAddr: 0x1000032BC, symSize: 0x14 }
  - { offset: 0x76C7, size: 0x8, addend: 0x0, symName: __ZNSt3__114pointer_traitsIPcE10pointer_toB8ne190107ERc, symObjAddr: 0x2198, symBinAddr: 0x1000032D0, symSize: 0x14 }
  - { offset: 0x76E9, size: 0x8, addend: 0x0, symName: __ZNSt3__19allocatorIcE8allocateB8ne190107Em, symObjAddr: 0x21AC, symBinAddr: 0x1000032E4, symSize: 0x54 }
  - { offset: 0x771B, size: 0x8, addend: 0x0, symName: __ZNSt3__117__compressed_pairINS_12basic_stringIcNS_11char_traitsIcEENS_9allocatorIcEEE5__repES5_E6secondB8ne190107Ev, symObjAddr: 0x2280, symBinAddr: 0x1000033B8, symSize: 0x24 }
  - { offset: 0x773F, size: 0x8, addend: 0x0, symName: __ZNSt3__122__compressed_pair_elemINS_9allocatorIcEELi1ELb1EE5__getB8ne190107Ev, symObjAddr: 0x22A4, symBinAddr: 0x1000033DC, symSize: 0x14 }
  - { offset: 0x7763, size: 0x8, addend: 0x0, symName: __ZNSt3__112basic_stringIcNS_11char_traitsIcEENS_9allocatorIcEEE10__align_itB8ne190107ILm8EEEmm, symObjAddr: 0x22B8, symBinAddr: 0x1000033F0, symSize: 0x1C }
  - { offset: 0x7790, size: 0x8, addend: 0x0, symName: __ZNSt3__111char_traitsIcE4copyB8ne190107EPcPKcm, symObjAddr: 0x22D4, symBinAddr: 0x10000340C, symSize: 0x40 }
  - { offset: 0x77CE, size: 0x8, addend: 0x0, symName: __ZNSt3__19allocatorIcE10deallocateB8ne190107EPcm, symObjAddr: 0x2374, symBinAddr: 0x1000034AC, symSize: 0x40 }
  - { offset: 0x780E, size: 0x8, addend: 0x0, symName: __ZNSt3__112basic_stringIcNS_11char_traitsIcEENS_9allocatorIcEEE13__get_pointerB8ne190107Ev, symObjAddr: 0x243C, symBinAddr: 0x100003574, symSize: 0x54 }
  - { offset: 0x7832, size: 0x8, addend: 0x0, symName: __ZNKSt3__112basic_stringIcNS_11char_traitsIcEENS_9allocatorIcEEE15__get_long_sizeB8ne190107Ev, symObjAddr: 0x2490, symBinAddr: 0x1000035C8, symSize: 0x28 }
  - { offset: 0x7856, size: 0x8, addend: 0x0, symName: __ZNKSt3__112basic_stringIcNS_11char_traitsIcEENS_9allocatorIcEEE16__get_short_sizeB8ne190107Ev, symObjAddr: 0x24B8, symBinAddr: 0x1000035F0, symSize: 0x34 }
  - { offset: 0x787A, size: 0x8, addend: 0x0, symName: __ZNSt3__116allocator_traitsINS_9allocatorIcEEE37select_on_container_copy_constructionB8ne190107IS2_vTnNS_9enable_ifIXntsr43__has_select_on_container_copy_constructionIKT_EE5valueEiE4typeELi0EEES2_RKS2_, symObjAddr: 0x24EC, symBinAddr: 0x100003624, symSize: 0x10 }
  - { offset: 0x78AD, size: 0x8, addend: 0x0, symName: __ZNKSt3__112basic_stringIcNS_11char_traitsIcEENS_9allocatorIcEEE13get_allocatorB8ne190107Ev, symObjAddr: 0x24FC, symBinAddr: 0x100003634, symSize: 0x24 }
  - { offset: 0x78D1, size: 0x8, addend: 0x0, symName: __ZNSt3__112basic_stringIcNS_11char_traitsIcEENS_9allocatorIcEEEC1B8ne190107ENS_24__uninitialized_size_tagEmRKS4_, symObjAddr: 0x2520, symBinAddr: 0x100003658, symSize: 0x3C }
  - { offset: 0x7923, size: 0x8, addend: 0x0, symName: __ZNSt3__111char_traitsIcE6assignB8ne190107EPcmc, symObjAddr: 0x255C, symBinAddr: 0x100003694, symSize: 0x44 }
  - { offset: 0x7961, size: 0x8, addend: 0x0, symName: __ZNSt3__112basic_stringIcNS_11char_traitsIcEENS_9allocatorIcEEEC2B8ne190107ENS_24__uninitialized_size_tagEmRKS4_, symObjAddr: 0x25A0, symBinAddr: 0x1000036D8, symSize: 0x118 }
  - { offset: 0x79E0, size: 0x8, addend: 0x0, symName: __ZNSt3__117__compressed_pairINS_12basic_stringIcNS_11char_traitsIcEENS_9allocatorIcEEE5__repES5_EC1B8ne190107INS_18__default_init_tagERKS5_EEOT_OT0_, symObjAddr: 0x26B8, symBinAddr: 0x1000037F0, symSize: 0x3C }
  - { offset: 0x7A36, size: 0x8, addend: 0x0, symName: __ZNSt3__116allocator_traitsINS_9allocatorIcEEE8allocateB8ne190107ERS2_m, symObjAddr: 0x26F4, symBinAddr: 0x10000382C, symSize: 0x2C }
  - { offset: 0x7A68, size: 0x8, addend: 0x0, symName: __ZNSt3__117__compressed_pairINS_12basic_stringIcNS_11char_traitsIcEENS_9allocatorIcEEE5__repES5_EC2B8ne190107INS_18__default_init_tagERKS5_EEOT_OT0_, symObjAddr: 0x2720, symBinAddr: 0x100003858, symSize: 0x40 }
  - { offset: 0x7ABE, size: 0x8, addend: 0x0, symName: __ZNSt3__122__compressed_pair_elemINS_9allocatorIcEELi1ELb1EEC2B8ne190107IRKS2_TnNS_9enable_ifIXntsr7is_sameIS3_u7__decayIT_EEE5valueEiE4typeELi0EEEOS8_, symObjAddr: 0x2760, symBinAddr: 0x100003898, symSize: 0x18 }
  - { offset: 0x7B03, size: 0x8, addend: 0x0, symName: __ZNSt3__112basic_stringIcNS_11char_traitsIcEENS_9allocatorIcEEE14__erase_to_endB8ne190107Em, symObjAddr: 0x2830, symBinAddr: 0x100003968, symSize: 0x40 }
  - { offset: 0x7B36, size: 0x8, addend: 0x0, symName: __ZNSt3__112basic_stringIcNS_11char_traitsIcEENS_9allocatorIcEEE19__null_terminate_atB8ne190107EPcm, symObjAddr: 0x2870, symBinAddr: 0x1000039A8, symSize: 0xAC }
  - { offset: 0x7B87, size: 0x8, addend: 0x0, symName: __ZNKSt3__112basic_stringIcNS_11char_traitsIcEENS_9allocatorIcEEE19__annotate_increaseB8ne190107Em, symObjAddr: 0x291C, symBinAddr: 0x100003A54, symSize: 0x14 }
  - { offset: 0x7BBA, size: 0x8, addend: 0x0, symName: __ZNSt3__112basic_stringIcNS_11char_traitsIcEENS_9allocatorIcEEE10__set_sizeB8ne190107Em, symObjAddr: 0x2930, symBinAddr: 0x100003A68, symSize: 0x54 }
  - { offset: 0x7BED, size: 0x8, addend: 0x0, symName: __ZNKSt3__112basic_stringIcNS_11char_traitsIcEENS_9allocatorIcEEE17__annotate_shrinkB8ne190107Em, symObjAddr: 0x2984, symBinAddr: 0x100003ABC, symSize: 0x14 }
...
